target datalayout = "e-m:e-p270:32:32-p271:32:32-p272:64:64-i64:64-i128:128-f80:128-n8:16:32:64-S128"
target triple = "x86_64-pc-linux-gnu"

%struct.WalSummarizerData = type { i8, i32, i64, i8, i32, i64, %struct.ConditionVariable }
%struct.ConditionVariable = type { i8, %struct.proclist_head }
%struct.proclist_head = type { i32, i32 }
%union.LWLockPadded = type { %struct.LWLock, [112 x i8] }
%struct.LWLock = type { i16, %struct.pg_atomic_uint32, %struct.proclist_head }
%struct.pg_atomic_uint32 = type { i32 }

@WalSummarizerCtl = internal global ptr null, align 8
@MainLWLockArray = external global ptr, align 8

; Function Attrs: nounwind uwtable
define internal void @WalSummarizerShutdown(i32 noundef %0, i64 noundef %1) #0 {
  %3 = alloca i32, align 4
  %4 = alloca i64, align 8
  store i32 %0, ptr %3, align 4
  store i64 %1, ptr %4, align 8
  %5 = load ptr, ptr @MainLWLockArray, align 8
  %6 = getelementptr inbounds %union.LWLockPadded, ptr %5, i64 49
  %7 = call zeroext i1 @LWLockAcquire(ptr noundef %6, i32 noundef 0)
  %8 = load ptr, ptr @WalSummarizerCtl, align 8
  %9 = getelementptr inbounds nuw %struct.WalSummarizerData, ptr %8, i32 0, i32 4
  store i32 -1, ptr %9, align 4
  %10 = load ptr, ptr @MainLWLockArray, align 8
  %11 = getelementptr inbounds %union.LWLockPadded, ptr %10, i64 49
  call void @LWLockRelease(ptr noundef %11)
  ret void
}