; Function Attrs: nounwind uwtable
define internal void @WalSummarizerShutdown(i32 %0, i64 %1) #1 {
  %3 = load ptr, ptr @MainLWLockArray, align 8
  %4 = getelementptr inbounds nuw i8, ptr %3, i64 6272
  %5 = tail call zeroext i1 @LWLockAcquire(ptr noundef nonnull %4, i32 noundef 0) #11
  %6 = load ptr, ptr @WalSummarizerCtl, align 8
  %7 = getelementptr inbounds nuw i8, ptr %6, i64 20
  store i32 -1, ptr %7, align 4
  %8 = load ptr, ptr @MainLWLockArray, align 8
  %9 = getelementptr inbounds nuw i8, ptr %8, i64 6272
  tail call void @LWLockRelease(ptr noundef nonnull %9) #11
  ret void
}